; Function Attrs: mustprogress uwtable
define void @_ZN7rocksdb21FaultInjectionTestEnv26DropRandomUnsyncedFileDataEPNS_6RandomE(ptr dead_on_unwind noalias writable sret(%"class.rocksdb::Status") align 8 initializes((0, 6), (8, 16)) %0, ptr noundef nonnull align 8 dereferenceable(312) %1, ptr noundef %2) local_unnamed_addr #0 align 2 personality ptr @__gxx_personality_v0 {
  %4 = alloca ptr, align 8
  %5 = alloca %"class.std::function", align 8
  store ptr %2, ptr %4, align 8, !tbaa !281
  %6 = ptrtoint ptr %4 to i64
  %7 = getelementptr inbounds nuw i8, ptr %5, i64 16
  %8 = getelementptr inbounds nuw i8, ptr %5, i64 24
  %9 = getelementptr inbounds nuw i8, ptr %5, i64 8
  store i64 0, ptr %9, align 8
  store i64 %6, ptr %5, align 8, !tbaa !283
  store ptr @"_ZNSt17_Function_handlerIFN7rocksdb6StatusEPNS0_3EnvENS0_9FileStateEEZNS0_21FaultInjectionTestEnv26DropRandomUnsyncedFileDataEPNS0_6RandomEE3$_0E9_M_invokeERKSt9_Any_dataOS3_OS4_", ptr %8, align 8, !tbaa !278
  store ptr @"_ZNSt17_Function_handlerIFN7rocksdb6StatusEPNS0_3EnvENS0_9FileStateEEZNS0_21FaultInjectionTestEnv26DropRandomUnsyncedFileDataEPNS0_6RandomEE3$_0E10_M_managerERSt9_Any_dataRKSB_St18_Manager_operation", ptr %7, align 8, !tbaa !276
  invoke void @_ZN7rocksdb21FaultInjectionTestEnv12DropFileDataESt8functionIFNS_6StatusEPNS_3EnvENS_9FileStateEEE(ptr dead_on_unwind writable sret(%"class.rocksdb::Status") align 8 %0, ptr noundef nonnull align 8 dereferenceable(312) %1, ptr noundef nonnull %5)
          to label %10 unwind label %17

10:                                               ; preds = %3
  %11 = load ptr, ptr %7, align 8, !tbaa !276
  %.not.i = icmp eq ptr %11, null
  br i1 %.not.i, label %_ZNSt14_Function_baseD2Ev.exit, label %12

12:                                               ; preds = %10
  %13 = invoke noundef zeroext i1 %11(ptr noundef nonnull align 8 dereferenceable(32) %5, ptr noundef nonnull align 8 dereferenceable(32) %5, i32 noundef 3)
          to label %_ZNSt14_Function_baseD2Ev.exit unwind label %14

14:                                               ; preds = %12
  %15 = landingpad { ptr, i32 }
          catch ptr null
  %16 = extractvalue { ptr, i32 } %15, 0
  call void @__clang_call_terminate(ptr %16) #27
  unreachable

_ZNSt14_Function_baseD2Ev.exit:                   ; preds = %10, %12
  ret void

17:                                               ; preds = %3
  %18 = landingpad { ptr, i32 }
          cleanup
  %19 = load ptr, ptr %7, align 8, !tbaa !276
  %.not.i2 = icmp eq ptr %19, null
  br i1 %.not.i2, label %_ZNSt14_Function_baseD2Ev.exit3, label %20

20:                                               ; preds = %17
  %21 = invoke noundef zeroext i1 %19(ptr noundef nonnull align 8 dereferenceable(32) %5, ptr noundef nonnull align 8 dereferenceable(32) %5, i32 noundef 3)
          to label %_ZNSt14_Function_baseD2Ev.exit3 unwind label %22

22:                                               ; preds = %20
  %23 = landingpad { ptr, i32 }
          catch ptr null
  %24 = extractvalue { ptr, i32 } %23, 0
  call void @__clang_call_terminate(ptr %24) #27
  unreachable

_ZNSt14_Function_baseD2Ev.exit3:                  ; preds = %17, %20
  resume { ptr, i32 } %18
}